; Function Attrs: mustprogress nounwind uwtable
define void @_ZN6casadi11CollocationD2Ev(ptr noundef nonnull align 8 dereferenceable(2016) %0) unnamed_addr #4 align 2 {
  store ptr getelementptr inbounds ({ [125 x ptr], [3 x ptr] }, ptr @_ZTVN6casadi11CollocationE, i64 0, i32 0, i64 2), ptr %0, align 8
  %2 = getelementptr inbounds i8, ptr %0, i64 1520
  store ptr getelementptr inbounds ({ [125 x ptr], [3 x ptr] }, ptr @_ZTVN6casadi11CollocationE, i64 0, i32 1, i64 2), ptr %2, align 8
  %3 = getelementptr inbounds i8, ptr %0, i64 1984
  tail call void @_ZNSt7__cxx1112basic_stringIcSt11char_traitsIcESaIcEED1Ev(ptr noundef nonnull align 8 dereferenceable(32) %3) #18
  tail call void @_ZN6casadi27ImplicitFixedStepIntegratorD2Ev(ptr noundef nonnull align 8 dereferenceable(1976) %0) #18
  ret void
}